target datalayout = "e-m:e-p270:32:32-p271:32:32-p272:64:64-i64:64-i128:128-f80:128-n8:16:32:64-S128"
target triple = "x86_64-pc-linux-gnu"

%"class.gmx::ArrayRef" = type { %"struct.gmx::ArrayRefIter", %"struct.gmx::ArrayRefIter" }
%"struct.gmx::ArrayRefIter" = type { ptr }
%"class.std::optional" = type { %"struct.std::_Optional_base" }
%"struct.std::_Optional_base" = type { %"struct.std::_Optional_payload" }
%"struct.std::_Optional_payload" = type { %"struct.std::_Optional_payload_base.base", [3 x i8] }
%"struct.std::_Optional_payload_base.base" = type <{ %"union.std::_Optional_payload_base<int>::_Storage", i8 }>
%"union.std::_Optional_payload_base<int>::_Storage" = type { i32 }
%struct.t_atoms = type { i32, ptr, ptr, ptr, ptr, i32, ptr, ptr, i8, i8, i8, i8, i8 }
%struct.t_atom = type { float, float, float, float, i16, i16, i32, i32, i32, [4 x i8] }
%"struct.std::_Optional_payload_base" = type <{ %"union.std::_Optional_payload_base<int>::_Storage", i8, [3 x i8] }>

; Function Attrs: mustprogress nounwind uwtable
define linkonce_odr void @_ZNSt22_Optional_payload_baseIiE8_StorageIiLb1EEC2Ev(ptr noundef nonnull align 4 dereferenceable(4) %0) unnamed_addr #2 comdat align 2 {
  %2 = alloca ptr, align 8
  store ptr %0, ptr %2, align 8, !tbaa !73
  ret void
}

; Function Attrs: mustprogress nounwind uwtable
define linkonce_odr void @_ZNSt22_Optional_payload_baseIiEC2Ev(ptr noundef nonnull align 4 dereferenceable(5) %0) unnamed_addr #2 comdat align 2 {
  %2 = alloca ptr, align 8
  store ptr %0, ptr %2, align 8, !tbaa !69
  %3 = load ptr, ptr %2, align 8
  %4 = getelementptr inbounds nuw %"struct.std::_Optional_payload_base", ptr %3, i32 0, i32 0
  call void @_ZNSt22_Optional_payload_baseIiE8_StorageIiLb1EEC2Ev(ptr noundef nonnull align 4 dereferenceable(4) %4) #13
  %5 = getelementptr inbounds nuw %"struct.std::_Optional_payload_base", ptr %3, i32 0, i32 1
  store i8 0, ptr %5, align 4, !tbaa !71
  ret void
}

; Function Attrs: mustprogress nounwind uwtable
define linkonce_odr void @_ZNSt17_Optional_payloadIiLb1ELb1ELb1EEC2Ev(ptr noundef nonnull align 4 dereferenceable(5) %0) unnamed_addr #2 comdat align 2 {
  %2 = alloca ptr, align 8
  store ptr %0, ptr %2, align 8, !tbaa !67
  %3 = load ptr, ptr %2, align 8
  call void @_ZNSt22_Optional_payload_baseIiEC2Ev(ptr noundef nonnull align 4 dereferenceable(5) %3) #13
  ret void
}

; Function Attrs: mustprogress nounwind uwtable
define linkonce_odr void @_ZNSt14_Optional_baseIiLb1ELb1EEC2Ev(ptr noundef nonnull align 4 dereferenceable(8) %0) unnamed_addr #2 comdat align 2 {
  %2 = alloca ptr, align 8
  store ptr %0, ptr %2, align 8, !tbaa !65
  %3 = load ptr, ptr %2, align 8
  %4 = getelementptr inbounds nuw %"struct.std::_Optional_base", ptr %3, i32 0, i32 0
  call void @_ZNSt17_Optional_payloadIiLb1ELb1ELb1EEC2Ev(ptr noundef nonnull align 4 dereferenceable(5) %4) #13
  ret void
}

; Function Attrs: mustprogress nounwind uwtable
define linkonce_odr void @_ZN3gmx12ArrayRefIterIKiEC2EPS1_(ptr noundef nonnull align 8 dereferenceable(8) %0, ptr noundef %1) unnamed_addr #2 comdat align 2 {
  %3 = alloca ptr, align 8
  %4 = alloca ptr, align 8
  store ptr %0, ptr %3, align 8, !tbaa !44
  store ptr %1, ptr %4, align 8, !tbaa !51
  %5 = load ptr, ptr %3, align 8
  %6 = getelementptr inbounds nuw %"struct.gmx::ArrayRefIter", ptr %5, i32 0, i32 0
  %7 = load ptr, ptr %4, align 8, !tbaa !51
  store ptr %7, ptr %6, align 8, !tbaa !46
  ret void
}

; Function Attrs: mustprogress nounwind uwtable
define linkonce_odr void @_ZNSt8optionalIiEC2ESt9nullopt_t(ptr noundef nonnull align 4 dereferenceable(8) %0) unnamed_addr #2 comdat align 2 {
  %2 = alloca ptr, align 8
  store ptr %0, ptr %2, align 8, !tbaa !55
  %3 = load ptr, ptr %2, align 8
  call void @_ZNSt14_Optional_baseIiLb1ELb1EEC2Ev(ptr noundef nonnull align 4 dereferenceable(8) %3) #13
  ret void
}

; Function Attrs: mustprogress nounwind uwtable
define linkonce_odr void @_ZN3gmx8ArrayRefIKiEC2Ev(ptr noundef nonnull align 8 dereferenceable(16) %0) unnamed_addr #2 comdat align 2 {
  %2 = alloca ptr, align 8
  store ptr %0, ptr %2, align 8, !tbaa !49
  %3 = load ptr, ptr %2, align 8
  %4 = getelementptr inbounds nuw %"class.gmx::ArrayRef", ptr %3, i32 0, i32 0
  call void @_ZN3gmx12ArrayRefIterIKiEC2EPS1_(ptr noundef nonnull align 8 dereferenceable(8) %4, ptr noundef null) #13
  %5 = getelementptr inbounds nuw %"class.gmx::ArrayRef", ptr %3, i32 0, i32 1
  call void @_ZN3gmx12ArrayRefIterIKiEC2EPS1_(ptr noundef nonnull align 8 dereferenceable(8) %5, ptr noundef null) #13
  ret void
}

; Function Attrs: mustprogress uwtable
define i64 @_Z15search_res_atomPKciPK7t_atomsS0_b(ptr noundef %0, i32 noundef %1, ptr noundef %2, ptr noundef %3, i1 noundef zeroext %4) #0 {
  %6 = alloca %"class.std::optional", align 4
  %7 = alloca ptr, align 8
  %8 = alloca i32, align 4
  %9 = alloca ptr, align 8
  %10 = alloca ptr, align 8
  %11 = alloca i8, align 1
  %12 = alloca i32, align 4
  %13 = alloca i32, align 4
  %14 = alloca %"class.gmx::ArrayRef", align 8
  store ptr %0, ptr %7, align 8, !tbaa !4
  store i32 %1, ptr %8, align 4, !tbaa !9
  store ptr %2, ptr %9, align 8, !tbaa !11
  store ptr %3, ptr %10, align 8, !tbaa !4
  %15 = zext i1 %4 to i8
  store i8 %15, ptr %11, align 1, !tbaa !13
  call void @llvm.lifetime.start.p0(i64 4, ptr %12) #13
  store i32 0, ptr %12, align 4, !tbaa !9
  br label %16

16:                                               ; preds = %45, %5
  %17 = load i32, ptr %12, align 4, !tbaa !9
  %18 = load ptr, ptr %9, align 8, !tbaa !11
  %19 = getelementptr inbounds nuw %struct.t_atoms, ptr %18, i32 0, i32 0
  %20 = load i32, ptr %19, align 8, !tbaa !15
  %21 = icmp slt i32 %17, %20
  br i1 %21, label %23, label %22

22:                                               ; preds = %16
  store i32 2, ptr %13, align 4
  br label %48

23:                                               ; preds = %16
  %24 = load ptr, ptr %9, align 8, !tbaa !11
  %25 = getelementptr inbounds nuw %struct.t_atoms, ptr %24, i32 0, i32 1
  %26 = load ptr, ptr %25, align 8, !tbaa !23
  %27 = load i32, ptr %12, align 4, !tbaa !9
  %28 = sext i32 %27 to i64
  %29 = getelementptr inbounds %struct.t_atom, ptr %26, i64 %28
  %30 = getelementptr inbounds nuw %struct.t_atom, ptr %29, i32 0, i32 7
  %31 = load i32, ptr %30, align 4, !tbaa !29
  %32 = load i32, ptr %8, align 4, !tbaa !9
  %33 = icmp eq i32 %31, %32
  br i1 %33, label %34, label %44

34:                                               ; preds = %23
  %35 = load ptr, ptr %7, align 8, !tbaa !4
  %36 = load i32, ptr %12, align 4, !tbaa !9
  %37 = load ptr, ptr %9, align 8, !tbaa !11
  %38 = load ptr, ptr %10, align 8, !tbaa !4
  %39 = load i8, ptr %11, align 1, !tbaa !13, !range !27, !noundef !28
  %40 = trunc i8 %39 to i1
  call void @_ZN3gmx8ArrayRefIKiEC2Ev(ptr noundef nonnull align 8 dereferenceable(16) %14)
  %41 = call i64 @_Z11search_atomPKciPK7t_atomsS0_bN3gmx8ArrayRefIKiEE(ptr noundef %35, i32 noundef %36, ptr noundef %37, ptr noundef %38, i1 noundef zeroext %40, ptr noundef byval(%"class.gmx::ArrayRef") align 8 %14)
  %42 = getelementptr inbounds nuw %"class.std::optional", ptr %6, i32 0, i32 0
  %43 = getelementptr inbounds nuw %"struct.std::_Optional_base", ptr %42, i32 0, i32 0
  store i64 %41, ptr %43, align 4
  store i32 1, ptr %13, align 4
  br label %48

44:                                               ; preds = %23
  br label %45

45:                                               ; preds = %44
  %46 = load i32, ptr %12, align 4, !tbaa !9
  %47 = add nsw i32 %46, 1
  store i32 %47, ptr %12, align 4, !tbaa !9
  br label %16, !llvm.loop !54

48:                                               ; preds = %34, %22
  call void @llvm.lifetime.end.p0(i64 4, ptr %12) #13
  %49 = load i32, ptr %13, align 4
  switch i32 %49, label %55 [
    i32 2, label %50
    i32 1, label %51
  ]

50:                                               ; preds = %48
  call void @_ZNSt8optionalIiEC2ESt9nullopt_t(ptr noundef nonnull align 4 dereferenceable(8) %6) #13
  br label %51

51:                                               ; preds = %50, %48
  %52 = getelementptr inbounds nuw %"class.std::optional", ptr %6, i32 0, i32 0
  %53 = getelementptr inbounds nuw %"struct.std::_Optional_base", ptr %52, i32 0, i32 0
  %54 = load i64, ptr %53, align 4
  ret i64 %54

55:                                               ; preds = %48
  unreachable
}