; Function Attrs: mustprogress uwtable
define i64 @_Z15search_res_atomPKciPK7t_atomsS0_b(ptr noundef %0, i32 noundef %1, ptr noundef %2, ptr noundef %3, i1 noundef zeroext %4) local_unnamed_addr #0 {
  %6 = alloca %"class.gmx::ArrayRef", align 8
  %7 = load i32, ptr %2, align 8, !tbaa !4
  %8 = icmp sgt i32 %7, 0
  br i1 %8, label %.lr.ph, label %.loopexit

.lr.ph:                                           ; preds = %5
  %9 = getelementptr inbounds nuw i8, ptr %2, i64 8
  %10 = load ptr, ptr %9, align 8, !tbaa !17
  %wide.trip.count = zext nneg i32 %7 to i64
  br label %11

11:                                               ; preds = %.lr.ph, %15
  %indvars.iv = phi i64 [ 0, %.lr.ph ], [ %indvars.iv.next, %15 ]
  %12 = getelementptr inbounds nuw %struct.t_atom, ptr %10, i64 %indvars.iv, i32 7
  %13 = load i32, ptr %12, align 4, !tbaa !19
  %14 = icmp eq i32 %13, %1
  br i1 %14, label %16, label %15

15:                                               ; preds = %11
  %indvars.iv.next = add nuw nsw i64 %indvars.iv, 1
  %exitcond.not = icmp eq i64 %indvars.iv.next, %wide.trip.count
  br i1 %exitcond.not, label %.loopexit, label %11, !llvm.loop !27

16:                                               ; preds = %11
  %17 = trunc nuw nsw i64 %indvars.iv to i32
  call void @llvm.memset.p0.i64(ptr noundef nonnull align 8 dereferenceable(16) %6, i8 0, i64 16, i1 false)
  %18 = tail call i64 @_Z11search_atomPKciPK7t_atomsS0_bN3gmx8ArrayRefIKiEE(ptr noundef %0, i32 noundef %17, ptr noundef nonnull %2, ptr noundef %3, i1 noundef zeroext %4, ptr noundef nonnull byval(%"class.gmx::ArrayRef") align 8 %6)
  br label %.loopexit

.loopexit:                                        ; preds = %15, %5, %16
  %.sroa.0.0.insert.insert = phi i64 [ %18, %16 ], [ 0, %5 ], [ 0, %15 ]
  ret i64 %.sroa.0.0.insert.insert
}